target datalayout = "e-m:e-p270:32:32-p271:32:32-p272:64:64-i64:64-i128:128-f80:128-n8:16:32:64-S128"
target triple = "x86_64-pc-linux-gnu"

%struct.mydata_t = type { ptr, i64 }

; Function Attrs: inlinehint nounwind uwtable
define internal void @pmix_atomic_rmb() #2 {
  fence acquire
  ret void
}

; Function Attrs: nounwind uwtable
define internal void @release_info(i32 noundef %0, ptr noundef %1) #0 {
  %3 = alloca i32, align 4
  %4 = alloca ptr, align 8
  %5 = alloca ptr, align 8
  store i32 %0, ptr %3, align 4, !tbaa !12
  store ptr %1, ptr %4, align 8, !tbaa !76
  call void @llvm.lifetime.start.p0(i64 8, ptr %5) #12
  %6 = load ptr, ptr %4, align 8, !tbaa !76
  store ptr %6, ptr %5, align 8, !tbaa !76
  call void @pmix_atomic_rmb()
  br label %7

7:                                                ; preds = %2
  %8 = load ptr, ptr %5, align 8, !tbaa !76
  %9 = getelementptr inbounds nuw %struct.mydata_t, ptr %8, i32 0, i32 0
  %10 = load ptr, ptr %9, align 8, !tbaa !161
  %11 = load ptr, ptr %5, align 8, !tbaa !76
  %12 = getelementptr inbounds nuw %struct.mydata_t, ptr %11, i32 0, i32 1
  %13 = load i64, ptr %12, align 8, !tbaa !163
  call void @PMIx_Info_free(ptr noundef %10, i64 noundef %13)
  %14 = load ptr, ptr %5, align 8, !tbaa !76
  %15 = getelementptr inbounds nuw %struct.mydata_t, ptr %14, i32 0, i32 0
  store ptr null, ptr %15, align 8, !tbaa !161
  br label %16

16:                                               ; preds = %7
  br label %17

17:                                               ; preds = %16
  %18 = load ptr, ptr %5, align 8, !tbaa !76
  call void @free(ptr noundef %18) #12
  call void @llvm.lifetime.end.p0(i64 8, ptr %5) #12
  ret void
}