; Function Attrs: nounwind uwtable
define internal void @release_info(i32 %0, ptr noundef captures(none) %1) #1 {
  fence acquire
  %3 = load ptr, ptr %1, align 8, !tbaa !162
  %4 = getelementptr inbounds nuw i8, ptr %1, i64 8
  %5 = load i64, ptr %4, align 8, !tbaa !164
  tail call void @PMIx_Info_free(ptr noundef %3, i64 noundef %5) #18
  tail call void @free(ptr noundef %1) #18
  ret void
}